; ModuleID = '2/139.c'
source_filename = "2/139.c"
target datalayout = "e-m:e-p270:32:32-p271:32:32-p272:64:64-i64:64-f80:128-n8:16:32:64-S128"
target triple = "x86_64-pc-linux-gnu"

%struct.b = type { i32, [26 x i8] }

@.str = private unnamed_addr constant [3 x i8] c"%d\00", align 1
@.str.1 = private unnamed_addr constant [5 x i8] c"%d%s\00", align 1
@.str.2 = private unnamed_addr constant [4 x i8] c"%c\0A\00", align 1
@.str.3 = private unnamed_addr constant [4 x i8] c"%d\0A\00", align 1

; Function Attrs: noinline nounwind uwtable
define dso_local void @main() #0 {
  %1 = alloca [999 x %struct.b], align 16
  %2 = alloca i32, align 4
  %3 = alloca i32, align 4
  %4 = alloca i32, align 4
  %5 = alloca i32, align 4
  %6 = alloca [26 x i32], align 16
  %7 = alloca i32, align 4
  %8 = alloca i32, align 4
  %9 = alloca i8, align 1
  %10 = bitcast [26 x i32]* %6 to i8*
  call void @llvm.memset.p0i8.i64(i8* align 16 %10, i8 0, i64 104, i1 false)
  store i32 0, i32* %7, align 4
  store i32 0, i32* %8, align 4
  %11 = call i32 (i8*, ...) @__isoc99_scanf(i8* getelementptr inbounds ([3 x i8], [3 x i8]* @.str, i64 0, i64 0), i32* %2)
  store i32 0, i32* %4, align 4
  br label %12

12:                                               ; preds = %26, %0
  %13 = load i32, i32* %4, align 4
  %14 = load i32, i32* %2, align 4
  %15 = icmp slt i32 %13, %14
  br i1 %15, label %16, label %29

16:                                               ; preds = %12
  %17 = load i32, i32* %4, align 4
  %18 = sext i32 %17 to i64
  %19 = getelementptr inbounds [999 x %struct.b], [999 x %struct.b]* %1, i64 0, i64 %18
  %20 = getelementptr inbounds %struct.b, %struct.b* %19, i32 0, i32 0
  %21 = load i32, i32* %4, align 4
  %22 = sext i32 %21 to i64
  %23 = getelementptr inbounds [999 x %struct.b], [999 x %struct.b]* %1, i64 0, i64 %22
  %24 = getelementptr inbounds %struct.b, %struct.b* %23, i32 0, i32 1
  %25 = call i32 (i8*, ...) @__isoc99_scanf(i8* getelementptr inbounds ([5 x i8], [5 x i8]* @.str.1, i64 0, i64 0), i32* %20, [26 x i8]* %24)
  br label %26

26:                                               ; preds = %16
  %27 = load i32, i32* %4, align 4
  %28 = add nsw i32 %27, 1
  store i32 %28, i32* %4, align 4
  br label %12

29:                                               ; preds = %12
  store i32 0, i32* %4, align 4
  br label %30

30:                                               ; preds = %63, %29
  %31 = load i32, i32* %4, align 4
  %32 = load i32, i32* %2, align 4
  %33 = icmp slt i32 %31, %32
  br i1 %33, label %34, label %66

34:                                               ; preds = %30
  store i32 0, i32* %5, align 4
  br label %35

35:                                               ; preds = %59, %34
  %36 = load i32, i32* %4, align 4
  %37 = sext i32 %36 to i64
  %38 = getelementptr inbounds [999 x %struct.b], [999 x %struct.b]* %1, i64 0, i64 %37
  %39 = getelementptr inbounds %struct.b, %struct.b* %38, i32 0, i32 1
  %40 = load i32, i32* %5, align 4
  %41 = sext i32 %40 to i64
  %42 = getelementptr inbounds [26 x i8], [26 x i8]* %39, i64 0, i64 %41
  %43 = load i8, i8* %42, align 1
  store i8 %43, i8* %9, align 1
  %44 = sext i8 %43 to i32
  %45 = icmp ne i32 %44, 0
  br i1 %45, label %46, label %49

46:                                               ; preds = %35
  %47 = load i32, i32* %5, align 4
  %48 = icmp slt i32 %47, 26
  br label %49

49:                                               ; preds = %46, %35
  %50 = phi i1 [ false, %35 ], [ %48, %46 ]
  br i1 %50, label %51, label %62

51:                                               ; preds = %49
  %52 = load i8, i8* %9, align 1
  %53 = sext i8 %52 to i32
  %54 = sub nsw i32 %53, 65
  %55 = sext i32 %54 to i64
  %56 = getelementptr inbounds [26 x i32], [26 x i32]* %6, i64 0, i64 %55
  %57 = load i32, i32* %56, align 4
  %58 = add nsw i32 %57, 1
  store i32 %58, i32* %56, align 4
  br label %59

59:                                               ; preds = %51
  %60 = load i32, i32* %5, align 4
  %61 = add nsw i32 %60, 1
  store i32 %61, i32* %5, align 4
  br label %35

62:                                               ; preds = %49
  br label %63

63:                                               ; preds = %62
  %64 = load i32, i32* %4, align 4
  %65 = add nsw i32 %64, 1
  store i32 %65, i32* %4, align 4
  br label %30

66:                                               ; preds = %30
  %67 = getelementptr inbounds [26 x i32], [26 x i32]* %6, i64 0, i64 0
  %68 = load i32, i32* %67, align 16
  store i32 %68, i32* %3, align 4
  store i32 0, i32* %4, align 4
  br label %69

69:                                               ; preds = %86, %66
  %70 = load i32, i32* %4, align 4
  %71 = icmp slt i32 %70, 26
  br i1 %71, label %72, label %89

72:                                               ; preds = %69
  %73 = load i32, i32* %4, align 4
  %74 = sext i32 %73 to i64
  %75 = getelementptr inbounds [26 x i32], [26 x i32]* %6, i64 0, i64 %74
  %76 = load i32, i32* %75, align 4
  %77 = load i32, i32* %3, align 4
  %78 = icmp sgt i32 %76, %77
  br i1 %78, label %79, label %85

79:                                               ; preds = %72
  %80 = load i32, i32* %4, align 4
  %81 = sext i32 %80 to i64
  %82 = getelementptr inbounds [26 x i32], [26 x i32]* %6, i64 0, i64 %81
  %83 = load i32, i32* %82, align 4
  store i32 %83, i32* %3, align 4
  %84 = load i32, i32* %4, align 4
  store i32 %84, i32* %7, align 4
  br label %85

85:                                               ; preds = %79, %72
  br label %86

86:                                               ; preds = %85
  %87 = load i32, i32* %4, align 4
  %88 = add nsw i32 %87, 1
  store i32 %88, i32* %4, align 4
  br label %69

89:                                               ; preds = %69
  %90 = load i32, i32* %7, align 4
  %91 = add nsw i32 %90, 65
  %92 = call i32 (i8*, ...) @printf(i8* getelementptr inbounds ([4 x i8], [4 x i8]* @.str.2, i64 0, i64 0), i32 %91)
  %93 = load i32, i32* %7, align 4
  %94 = sext i32 %93 to i64
  %95 = getelementptr inbounds [26 x i32], [26 x i32]* %6, i64 0, i64 %94
  %96 = load i32, i32* %95, align 4
  %97 = call i32 (i8*, ...) @printf(i8* getelementptr inbounds ([4 x i8], [4 x i8]* @.str.3, i64 0, i64 0), i32 %96)
  store i32 0, i32* %4, align 4
  br label %98

98:                                               ; preds = %141, %89
  %99 = load i32, i32* %4, align 4
  %100 = load i32, i32* %2, align 4
  %101 = icmp slt i32 %99, %100
  br i1 %101, label %102, label %144

102:                                              ; preds = %98
  store i32 0, i32* %8, align 4
  store i32 0, i32* %5, align 4
  br label %103

103:                                              ; preds = %127, %102
  %104 = load i32, i32* %4, align 4
  %105 = sext i32 %104 to i64
  %106 = getelementptr inbounds [999 x %struct.b], [999 x %struct.b]* %1, i64 0, i64 %105
  %107 = getelementptr inbounds %struct.b, %struct.b* %106, i32 0, i32 1
  %108 = load i32, i32* %5, align 4
  %109 = sext i32 %108 to i64
  %110 = getelementptr inbounds [26 x i8], [26 x i8]* %107, i64 0, i64 %109
  %111 = load i8, i8* %110, align 1
  store i8 %111, i8* %9, align 1
  %112 = sext i8 %111 to i32
  %113 = icmp ne i32 %112, 0
  br i1 %113, label %114, label %117

114:                                              ; preds = %103
  %115 = load i32, i32* %5, align 4
  %116 = icmp slt i32 %115, 26
  br label %117

117:                                              ; preds = %114, %103
  %118 = phi i1 [ false, %103 ], [ %116, %114 ]
  br i1 %118, label %119, label %130

119:                                              ; preds = %117
  %120 = load i8, i8* %9, align 1
  %121 = sext i8 %120 to i32
  %122 = load i32, i32* %7, align 4
  %123 = add nsw i32 %122, 65
  %124 = icmp eq i32 %121, %123
  br i1 %124, label %125, label %126

125:                                              ; preds = %119
  store i32 1, i32* %8, align 4
  br label %126

126:                                              ; preds = %125, %119
  br label %127

127:                                              ; preds = %126
  %128 = load i32, i32* %5, align 4
  %129 = add nsw i32 %128, 1
  store i32 %129, i32* %5, align 4
  br label %103

130:                                              ; preds = %117
  %131 = load i32, i32* %8, align 4
  %132 = icmp eq i32 %131, 1
  br i1 %132, label %133, label %140

133:                                              ; preds = %130
  %134 = load i32, i32* %4, align 4
  %135 = sext i32 %134 to i64
  %136 = getelementptr inbounds [999 x %struct.b], [999 x %struct.b]* %1, i64 0, i64 %135
  %137 = getelementptr inbounds %struct.b, %struct.b* %136, i32 0, i32 0
  %138 = load i32, i32* %137, align 16
  %139 = call i32 (i8*, ...) @printf(i8* getelementptr inbounds ([4 x i8], [4 x i8]* @.str.3, i64 0, i64 0), i32 %138)
  br label %140

140:                                              ; preds = %133, %130
  br label %141

141:                                              ; preds = %140
  %142 = load i32, i32* %4, align 4
  %143 = add nsw i32 %142, 1
  store i32 %143, i32* %4, align 4
  br label %98

144:                                              ; preds = %98
  ret void
}

; Function Attrs: argmemonly nounwind willreturn
declare void @llvm.memset.p0i8.i64(i8* nocapture writeonly, i8, i64, i1 immarg) #1

declare dso_local i32 @__isoc99_scanf(i8*, ...) #2

declare dso_local i32 @printf(i8*, ...) #2


!llvm.module.flags = !{!0}
!llvm.ident = !{!1}

!0 = !{i32 1, !"wchar_size", i32 4}
!1 = !{!"clang version 10.0.0-4ubuntu1 "}
